target datalayout = "e-m:e-p270:32:32-p271:32:32-p272:64:64-i64:64-i128:128-f80:128-n8:16:32:64-S128"
target triple = "x86_64-pc-linux-gnu"

; Function Attrs: inlinehint nounwind uwtable
define internal i32 @MEM_swap32(i32 noundef %0) #2 {
  %2 = alloca i32, align 4
  store i32 %0, ptr %2, align 4, !tbaa !53
  %3 = load i32, ptr %2, align 4, !tbaa !53
  %4 = call i32 @llvm.bswap.i32(i32 %3)
  ret i32 %4
}

; Function Attrs: inlinehint nounwind uwtable
define internal void @MEM_write32(ptr noundef %0, i32 noundef %1) #2 {
  %3 = alloca ptr, align 8
  %4 = alloca i32, align 4
  store ptr %0, ptr %3, align 8, !tbaa !15
  store i32 %1, ptr %4, align 4, !tbaa !53
  %5 = load i32, ptr %4, align 4, !tbaa !53
  %6 = load ptr, ptr %3, align 8, !tbaa !15
  store i32 %5, ptr %6, align 1, !tbaa !53
  ret void
}

; Function Attrs: inlinehint nounwind uwtable
define internal i32 @MEM_isLittleEndian() #2 {
  ret i32 1
}

; Function Attrs: inlinehint nounwind uwtable
define internal void @MEM_writeLE32(ptr noundef %0, i32 noundef %1) #2 {
  %3 = alloca ptr, align 8
  %4 = alloca i32, align 4
  store ptr %0, ptr %3, align 8, !tbaa !15
  store i32 %1, ptr %4, align 4, !tbaa !53
  %5 = call i32 @MEM_isLittleEndian()
  %6 = icmp ne i32 %5, 0
  br i1 %6, label %7, label %10

7:                                                ; preds = %2
  %8 = load ptr, ptr %3, align 8, !tbaa !15
  %9 = load i32, ptr %4, align 4, !tbaa !53
  call void @MEM_write32(ptr noundef %8, i32 noundef %9)
  br label %14

10:                                               ; preds = %2
  %11 = load ptr, ptr %3, align 8, !tbaa !15
  %12 = load i32, ptr %4, align 4, !tbaa !53
  %13 = call i32 @MEM_swap32(i32 noundef %12)
  call void @MEM_write32(ptr noundef %11, i32 noundef %13)
  br label %14

14:                                               ; preds = %10, %7
  ret void
}

; Function Attrs: nounwind uwtable
define i64 @ZSTD_writeSkippableFrame(ptr noundef %0, i64 noundef %1, ptr noundef %2, i64 noundef %3, i32 noundef %4) #0 {
  %6 = alloca i64, align 8
  %7 = alloca ptr, align 8
  %8 = alloca i64, align 8
  %9 = alloca ptr, align 8
  %10 = alloca i64, align 8
  %11 = alloca i32, align 4
  %12 = alloca ptr, align 8
  %13 = alloca i32, align 4
  store ptr %0, ptr %7, align 8, !tbaa !15
  store i64 %1, ptr %8, align 8, !tbaa !3
  store ptr %2, ptr %9, align 8, !tbaa !15
  store i64 %3, ptr %10, align 8, !tbaa !3
  store i32 %4, ptr %11, align 4, !tbaa !53
  call void @llvm.lifetime.start.p0(i64 8, ptr %12) #15
  %14 = load ptr, ptr %7, align 8, !tbaa !15
  store ptr %14, ptr %12, align 8, !tbaa !198
  br label %15

15:                                               ; preds = %5
  %16 = load i64, ptr %8, align 8, !tbaa !3
  %17 = load i64, ptr %10, align 8, !tbaa !3
  %18 = add i64 %17, 8
  %19 = icmp ult i64 %16, %18
  br i1 %19, label %20, label %33

20:                                               ; preds = %15
  br label %21

21:                                               ; preds = %20
  br label %22

22:                                               ; preds = %21
  br label %23

23:                                               ; preds = %22
  br label %24

24:                                               ; preds = %23
  br label %25

25:                                               ; preds = %24
  br label %26

26:                                               ; preds = %25
  br label %27

27:                                               ; preds = %26
  br label %28

28:                                               ; preds = %27
  br label %29

29:                                               ; preds = %28
  br label %30

30:                                               ; preds = %29
  br label %31

31:                                               ; preds = %30
  br label %32

32:                                               ; preds = %31
  store i64 -70, ptr %6, align 8
  store i32 1, ptr %13, align 4
  br label %87

33:                                               ; preds = %15
  br label %34

34:                                               ; preds = %33
  br label %35

35:                                               ; preds = %34
  br label %36

36:                                               ; preds = %35
  %37 = load i64, ptr %10, align 8, !tbaa !3
  %38 = icmp ugt i64 %37, 4294967295
  br i1 %38, label %39, label %52

39:                                               ; preds = %36
  br label %40

40:                                               ; preds = %39
  br label %41

41:                                               ; preds = %40
  br label %42

42:                                               ; preds = %41
  br label %43

43:                                               ; preds = %42
  br label %44

44:                                               ; preds = %43
  br label %45

45:                                               ; preds = %44
  br label %46

46:                                               ; preds = %45
  br label %47

47:                                               ; preds = %46
  br label %48

48:                                               ; preds = %47
  br label %49

49:                                               ; preds = %48
  br label %50

50:                                               ; preds = %49
  br label %51

51:                                               ; preds = %50
  store i64 -72, ptr %6, align 8
  store i32 1, ptr %13, align 4
  br label %87

52:                                               ; preds = %36
  br label %53

53:                                               ; preds = %52
  br label %54

54:                                               ; preds = %53
  br label %55

55:                                               ; preds = %54
  %56 = load i32, ptr %11, align 4, !tbaa !53
  %57 = icmp ugt i32 %56, 15
  br i1 %57, label %58, label %71

58:                                               ; preds = %55
  br label %59

59:                                               ; preds = %58
  br label %60

60:                                               ; preds = %59
  br label %61

61:                                               ; preds = %60
  br label %62

62:                                               ; preds = %61
  br label %63

63:                                               ; preds = %62
  br label %64

64:                                               ; preds = %63
  br label %65

65:                                               ; preds = %64
  br label %66

66:                                               ; preds = %65
  br label %67

67:                                               ; preds = %66
  br label %68

68:                                               ; preds = %67
  br label %69

69:                                               ; preds = %68
  br label %70

70:                                               ; preds = %69
  store i64 -42, ptr %6, align 8
  store i32 1, ptr %13, align 4
  br label %87

71:                                               ; preds = %55
  br label %72

72:                                               ; preds = %71
  br label %73

73:                                               ; preds = %72
  %74 = load ptr, ptr %12, align 8, !tbaa !198
  %75 = load i32, ptr %11, align 4, !tbaa !53
  %76 = add i32 407710288, %75
  call void @MEM_writeLE32(ptr noundef %74, i32 noundef %76)
  %77 = load ptr, ptr %12, align 8, !tbaa !198
  %78 = getelementptr inbounds i8, ptr %77, i64 4
  %79 = load i64, ptr %10, align 8, !tbaa !3
  %80 = trunc i64 %79 to i32
  call void @MEM_writeLE32(ptr noundef %78, i32 noundef %80)
  %81 = load ptr, ptr %12, align 8, !tbaa !198
  %82 = getelementptr inbounds i8, ptr %81, i64 8
  %83 = load ptr, ptr %9, align 8, !tbaa !15
  %84 = load i64, ptr %10, align 8, !tbaa !3
  call void @llvm.memcpy.p0.p0.i64(ptr align 1 %82, ptr align 1 %83, i64 %84, i1 false)
  %85 = load i64, ptr %10, align 8, !tbaa !3
  %86 = add i64 %85, 8
  store i64 %86, ptr %6, align 8
  store i32 1, ptr %13, align 4
  br label %87

87:                                               ; preds = %73, %70, %51, %32
  call void @llvm.lifetime.end.p0(i64 8, ptr %12) #15
  %88 = load i64, ptr %6, align 8
  ret i64 %88
}